; Function Attrs: inlinehint mustprogress nofree nounwind null_pointer_is_valid sspstrong willreturn memory(read, inaccessiblemem: none) uwtable
define internal fastcc noundef zeroext i1 @addresses_equal(ptr noundef readonly captures(none) %0, ptr noundef readonly captures(none) %1) unnamed_addr #8 {
  %3 = load i32, ptr %0, align 8
  %4 = load i32, ptr %1, align 8
  %5 = icmp eq i32 %3, %4
  br i1 %5, label %6, label %21

6:                                                ; preds = %2
  %7 = getelementptr inbounds nuw i8, ptr %0, i64 4
  %8 = load i32, ptr %7, align 4
  %9 = getelementptr inbounds nuw i8, ptr %1, i64 4
  %10 = load i32, ptr %9, align 4
  %11 = icmp eq i32 %8, %10
  br i1 %11, label %12, label %21

12:                                               ; preds = %6
  %13 = icmp eq i32 %8, 0
  br i1 %13, label %22, label %14

14:                                               ; preds = %12
  %15 = getelementptr inbounds nuw i8, ptr %0, i64 8
  %16 = load ptr, ptr %15, align 8
  %17 = getelementptr inbounds nuw i8, ptr %1, i64 8
  %18 = load ptr, ptr %17, align 8
  %19 = sext i32 %8 to i64
  %bcmp = tail call i32 @bcmp(ptr %16, ptr %18, i64 %19)
  %20 = icmp eq i32 %bcmp, 0
  br i1 %20, label %22, label %21

21:                                               ; preds = %14, %6, %2
  br label %22

22:                                               ; preds = %12, %14, %21
  %.0 = phi i1 [ false, %21 ], [ true, %14 ], [ true, %12 ]
  ret i1 %.0
}